(dp0
S'info'
p1
I0
sS'function'
p2
I0
sS'error'
p3
I2
sS'statement'
p4
I9
sS'by_msg'
p5
(dp6
S'django-not-available'
p7
I1
sS'import-error'
p8
I2
ssS'refactor'
p9
I0
sS'method'
p10
I0
sS'cycles'
p11
(lp12
sS'warning'
p13
I0
sS'module'
p14
I1
sS'dependencies'
p15
(dp16
S'flask'
p17
c__builtin__
set
p18
((lp19
S'.~c9_invoke_wlRJwy'
p20
atp21
Rp22
ssS'convention'
p23
I0
sS'fatal'
p24
I1
sS'class'
p25
I0
sS'by_module'
p26
(dp27
g20
(dp28
g1
I0
sg23
I0
sg9
I0
sg13
I0
sg4
I0
sg3
I2
sg24
I1
sss.